target datalayout = "e-m:e-p270:32:32-p271:32:32-p272:64:64-i64:64-i128:128-f80:128-n8:16:32:64-S128"
target triple = "x86_64-pc-linux-gnu"

%struct.__va_list_tag = type { i32, i32, ptr, ptr }

@logfile = internal global ptr null, align 8
@stderr = external global ptr, align 8
@stdout = external global ptr, align 8
@in_note = internal global i8 0, align 1
@.str.90 = private unnamed_addr constant [2 x i8] c"\0A\00", align 1
@.str.91 = private unnamed_addr constant [3 x i8] c"# \00", align 1
@.str.92 = private unnamed_addr constant [10 x i8] c"Bail out!\00", align 1

; Function Attrs: nounwind uwtable
define internal void @emit_tap_output_v(i32 noundef %0, ptr noundef %1, ptr noundef %2) #0 {
  %4 = alloca i32, align 4
  %5 = alloca ptr, align 8
  %6 = alloca ptr, align 8
  %7 = alloca [1 x %struct.__va_list_tag], align 16
  %8 = alloca ptr, align 8
  %9 = alloca i32, align 4
  %10 = alloca i32, align 4
  store i32 %0, ptr %4, align 4
  store ptr %1, ptr %5, align 8
  store ptr %2, ptr %6, align 8
  call void @llvm.lifetime.start.p0(i64 24, ptr %7) #14
  call void @llvm.lifetime.start.p0(i64 8, ptr %8) #14
  call void @llvm.lifetime.start.p0(i64 4, ptr %9) #14
  %11 = call ptr @__errno_location() #18
  %12 = load i32, ptr %11, align 4
  store i32 %12, ptr %9, align 4
  %13 = load i32, ptr %4, align 4
  %14 = icmp eq i32 %13, 0
  br i1 %14, label %18, label %15

15:                                               ; preds = %3
  %16 = load i32, ptr %4, align 4
  %17 = icmp eq i32 %16, 1
  br i1 %17, label %18, label %20

18:                                               ; preds = %15, %3
  %19 = load ptr, ptr @stderr, align 8
  store ptr %19, ptr %8, align 8
  br label %22

20:                                               ; preds = %15
  %21 = load ptr, ptr @stdout, align 8
  store ptr %21, ptr %8, align 8
  br label %22

22:                                               ; preds = %20, %18
  %23 = load i32, ptr %4, align 4
  %24 = icmp eq i32 %23, 4
  br i1 %24, label %25, label %34

25:                                               ; preds = %22
  store i8 0, ptr @in_note, align 1
  %26 = load ptr, ptr %8, align 8
  %27 = call i32 (ptr, ptr, ...) @pg_fprintf(ptr noundef %26, ptr noundef @.str.90)
  %28 = load ptr, ptr @logfile, align 8
  %29 = icmp ne ptr %28, null
  br i1 %29, label %30, label %33

30:                                               ; preds = %25
  %31 = load ptr, ptr @logfile, align 8
  %32 = call i32 (ptr, ptr, ...) @pg_fprintf(ptr noundef %31, ptr noundef @.str.90)
  br label %33

33:                                               ; preds = %30, %25
  store i32 1, ptr %10, align 4
  br label %107

34:                                               ; preds = %22
  %35 = getelementptr inbounds [1 x %struct.__va_list_tag], ptr %7, i64 0, i64 0
  %36 = load ptr, ptr %6, align 8
  call void @llvm.va_copy.p0(ptr %35, ptr %36)
  %37 = load i32, ptr %4, align 4
  %38 = icmp eq i32 %37, 2
  br i1 %38, label %51, label %39

39:                                               ; preds = %34
  %40 = load i32, ptr %4, align 4
  %41 = icmp eq i32 %40, 0
  br i1 %41, label %51, label %42

42:                                               ; preds = %39
  %43 = load i32, ptr %4, align 4
  %44 = icmp eq i32 %43, 1
  br i1 %44, label %51, label %45

45:                                               ; preds = %42
  %46 = load i32, ptr %4, align 4
  %47 = icmp eq i32 %46, 3
  br i1 %47, label %48, label %60

48:                                               ; preds = %45
  %49 = load i8, ptr @in_note, align 1, !range !5, !noundef !6
  %50 = trunc i8 %49 to i1
  br i1 %50, label %60, label %51

51:                                               ; preds = %48, %42, %39, %34
  %52 = load ptr, ptr %8, align 8
  %53 = call i32 (ptr, ptr, ...) @pg_fprintf(ptr noundef %52, ptr noundef @.str.91)
  %54 = load ptr, ptr @logfile, align 8
  %55 = icmp ne ptr %54, null
  br i1 %55, label %56, label %59

56:                                               ; preds = %51
  %57 = load ptr, ptr @logfile, align 8
  %58 = call i32 (ptr, ptr, ...) @pg_fprintf(ptr noundef %57, ptr noundef @.str.91)
  br label %59

59:                                               ; preds = %56, %51
  br label %60

60:                                               ; preds = %59, %48, %45
  %61 = load i32, ptr %9, align 4
  %62 = call ptr @__errno_location() #18
  store i32 %61, ptr %62, align 4
  %63 = load ptr, ptr %8, align 8
  %64 = load ptr, ptr %5, align 8
  %65 = load ptr, ptr %6, align 8
  %66 = call i32 @pg_vfprintf(ptr noundef %63, ptr noundef %64, ptr noundef %65)
  %67 = load ptr, ptr @logfile, align 8
  %68 = icmp ne ptr %67, null
  br i1 %68, label %69, label %76

69:                                               ; preds = %60
  %70 = load i32, ptr %9, align 4
  %71 = call ptr @__errno_location() #18
  store i32 %70, ptr %71, align 4
  %72 = load ptr, ptr @logfile, align 8
  %73 = load ptr, ptr %5, align 8
  %74 = getelementptr inbounds [1 x %struct.__va_list_tag], ptr %7, i64 0, i64 0
  %75 = call i32 @pg_vfprintf(ptr noundef %72, ptr noundef %73, ptr noundef %74)
  br label %76

76:                                               ; preds = %69, %60
  %77 = load i32, ptr %4, align 4
  %78 = icmp eq i32 %77, 3
  br i1 %78, label %79, label %80

79:                                               ; preds = %76
  store i8 1, ptr @in_note, align 1
  br label %80

80:                                               ; preds = %79, %76
  %81 = load i32, ptr %4, align 4
  %82 = icmp eq i32 %81, 1
  br i1 %82, label %83, label %92

83:                                               ; preds = %80
  %84 = load ptr, ptr @stdout, align 8
  %85 = call i32 (ptr, ptr, ...) @pg_fprintf(ptr noundef %84, ptr noundef @.str.92)
  %86 = load ptr, ptr @logfile, align 8
  %87 = icmp ne ptr %86, null
  br i1 %87, label %88, label %91

88:                                               ; preds = %83
  %89 = load ptr, ptr @logfile, align 8
  %90 = call i32 (ptr, ptr, ...) @pg_fprintf(ptr noundef %89, ptr noundef @.str.92)
  br label %91

91:                                               ; preds = %88, %83
  br label %92

92:                                               ; preds = %91, %80
  %93 = getelementptr inbounds [1 x %struct.__va_list_tag], ptr %7, i64 0, i64 0
  call void @llvm.va_end.p0(ptr %93)
  %94 = load i32, ptr %4, align 4
  %95 = icmp ne i32 %94, 3
  br i1 %95, label %96, label %105

96:                                               ; preds = %92
  %97 = load ptr, ptr %8, align 8
  %98 = call i32 (ptr, ptr, ...) @pg_fprintf(ptr noundef %97, ptr noundef @.str.90)
  %99 = load ptr, ptr @logfile, align 8
  %100 = icmp ne ptr %99, null
  br i1 %100, label %101, label %104

101:                                              ; preds = %96
  %102 = load ptr, ptr @logfile, align 8
  %103 = call i32 (ptr, ptr, ...) @pg_fprintf(ptr noundef %102, ptr noundef @.str.90)
  br label %104

104:                                              ; preds = %101, %96
  br label %105

105:                                              ; preds = %104, %92
  %106 = call i32 @fflush(ptr noundef null)
  store i32 0, ptr %10, align 4
  br label %107

107:                                              ; preds = %105, %33
  call void @llvm.lifetime.end.p0(i64 4, ptr %9) #14
  call void @llvm.lifetime.end.p0(i64 8, ptr %8) #14
  call void @llvm.lifetime.end.p0(i64 24, ptr %7) #14
  %108 = load i32, ptr %10, align 4
  switch i32 %108, label %110 [
    i32 0, label %109
    i32 1, label %109
  ]

109:                                              ; preds = %107, %107
  ret void

110:                                              ; preds = %107
  unreachable
}