; Function Attrs: nounwind uwtable
define internal fastcc void @emit_tap_output_v(i32 noundef range(i32 0, 7) %0, ptr noundef %1, ptr noundef nonnull %2) unnamed_addr #0 {
  %4 = alloca [1 x %struct.__va_list_tag], align 16
  call void @llvm.lifetime.start.p0(i64 24, ptr nonnull %4) #22
  %5 = tail call ptr @__errno_location() #25
  %6 = load i32, ptr %5, align 4
  %7 = icmp eq i32 %0, 1
  %or.cond = icmp samesign ult i32 %0, 2
  %stderr.val = load ptr, ptr @stderr, align 8
  %stdout.val = load ptr, ptr @stdout, align 8
  %.0 = select i1 %or.cond, ptr %stderr.val, ptr %stdout.val
  %8 = icmp eq i32 %0, 4
  br i1 %8, label %9, label %14

9:                                                ; preds = %3
  store i1 false, ptr @in_note, align 1
  %10 = tail call i32 (ptr, ptr, ...) @pg_fprintf(ptr noundef %stdout.val, ptr noundef nonnull @.str.90) #22
  %11 = load ptr, ptr @logfile, align 8
  %.not34 = icmp eq ptr %11, null
  br i1 %.not34, label %46, label %12

12:                                               ; preds = %9
  %13 = tail call i32 (ptr, ptr, ...) @pg_fprintf(ptr noundef nonnull %11, ptr noundef nonnull @.str.90) #22
  br label %46

14:                                               ; preds = %3
  call void @llvm.va_copy.p0(ptr nonnull %4, ptr nonnull %2)
  %15 = and i32 %0, 5
  %or.cond3 = icmp eq i32 %15, 0
  %or.cond5 = or i1 %7, %or.cond3
  br i1 %or.cond5, label %19, label %16

16:                                               ; preds = %14
  %17 = icmp eq i32 %0, 3
  br i1 %17, label %18, label %24

18:                                               ; preds = %16
  %.b29 = load i1, ptr @in_note, align 1
  br i1 %.b29, label %24, label %19

19:                                               ; preds = %18, %14
  %20 = call i32 (ptr, ptr, ...) @pg_fprintf(ptr noundef %.0, ptr noundef nonnull @.str.91) #22
  %21 = load ptr, ptr @logfile, align 8
  %.not = icmp eq ptr %21, null
  br i1 %.not, label %24, label %22

22:                                               ; preds = %19
  %23 = call i32 (ptr, ptr, ...) @pg_fprintf(ptr noundef nonnull %21, ptr noundef nonnull @.str.91) #22
  br label %24

24:                                               ; preds = %19, %22, %18, %16
  store i32 %6, ptr %5, align 4
  %25 = call i32 @pg_vfprintf(ptr noundef %.0, ptr noundef %1, ptr noundef nonnull %2) #22
  %26 = load ptr, ptr @logfile, align 8
  %.not30 = icmp eq ptr %26, null
  br i1 %.not30, label %29, label %27

27:                                               ; preds = %24
  store i32 %6, ptr %5, align 4
  %28 = call i32 @pg_vfprintf(ptr noundef nonnull %26, ptr noundef %1, ptr noundef nonnull %4) #22
  br label %29

29:                                               ; preds = %27, %24
  %30 = icmp eq i32 %0, 3
  br i1 %30, label %38, label %31

31:                                               ; preds = %29
  br i1 %7, label %32, label %39

32:                                               ; preds = %31
  %33 = load ptr, ptr @stdout, align 8
  %34 = call i32 (ptr, ptr, ...) @pg_fprintf(ptr noundef %33, ptr noundef nonnull @.str.92) #22
  %35 = load ptr, ptr @logfile, align 8
  %.not31 = icmp eq ptr %35, null
  br i1 %.not31, label %39, label %36

36:                                               ; preds = %32
  %37 = call i32 (ptr, ptr, ...) @pg_fprintf(ptr noundef nonnull %35, ptr noundef nonnull @.str.92) #22
  br label %39

38:                                               ; preds = %29
  store i1 true, ptr @in_note, align 1
  call void @llvm.va_end.p0(ptr nonnull %4)
  br label %44

39:                                               ; preds = %32, %36, %31
  call void @llvm.va_end.p0(ptr nonnull %4)
  %40 = call i32 (ptr, ptr, ...) @pg_fprintf(ptr noundef %.0, ptr noundef nonnull @.str.90) #22
  %41 = load ptr, ptr @logfile, align 8
  %.not33 = icmp eq ptr %41, null
  br i1 %.not33, label %44, label %42

42:                                               ; preds = %39
  %43 = call i32 (ptr, ptr, ...) @pg_fprintf(ptr noundef nonnull %41, ptr noundef nonnull @.str.90) #22
  br label %44

44:                                               ; preds = %38, %39, %42
  %45 = call i32 @fflush(ptr noundef null)
  br label %46

46:                                               ; preds = %9, %12, %44
  call void @llvm.lifetime.end.p0(i64 24, ptr nonnull %4) #22
  ret void
}